; ModuleID = 'source-C-CXX/44/2506.c'
source_filename = "source-C-CXX/44/2506.c"
target datalayout = "e-m:e-p270:32:32-p271:32:32-p272:64:64-i64:64-f80:128-n8:16:32:64-S128"
target triple = "x86_64-pc-linux-gnu"

@.str = private unnamed_addr constant [6 x i8] c"%s %s\00", align 1
@.str.1 = private unnamed_addr constant [3 x i8] c"%d\00", align 1

; Function Attrs: nofree nounwind sspstrong uwtable
define dso_local i32 @main() local_unnamed_addr #0 {
  %1 = alloca [55 x i8], align 16
  %2 = alloca [55 x i8], align 16
  %3 = alloca i32, align 4
  %4 = getelementptr inbounds [55 x i8], [55 x i8]* %1, i64 0, i64 0
  call void @llvm.lifetime.start.p0i8(i64 55, i8* nonnull %4) #4
  %5 = getelementptr inbounds [55 x i8], [55 x i8]* %2, i64 0, i64 0
  call void @llvm.lifetime.start.p0i8(i64 55, i8* nonnull %5) #4
  %6 = call i32 (i8*, ...) @__isoc99_scanf(i8* getelementptr inbounds ([6 x i8], [6 x i8]* @.str, i64 0, i64 0), i8* nonnull %4, i8* nonnull %5)
  %7 = call i64 @strlen(i8* noundef nonnull %5) #5
  %8 = call i64 @strlen(i8* noundef nonnull %4) #5
  %9 = trunc i64 %8 to i32
  br label %10

10:                                               ; preds = %0, %32
  %11 = phi i64 [ 0, %0 ], [ %33, %32 ]
  %12 = phi i32 [ 0, %0 ], [ %26, %32 ]
  %13 = add i32 %12, %9
  br label %14

14:                                               ; preds = %10, %22
  %15 = phi i64 [ 0, %10 ], [ %23, %22 ]
  %16 = getelementptr inbounds [55 x i8], [55 x i8]* %1, i64 0, i64 %15
  %17 = load i8, i8* %16, align 1, !tbaa !5
  %18 = add nuw nsw i64 %15, %11
  %19 = getelementptr inbounds [55 x i8], [55 x i8]* %2, i64 0, i64 %18
  %20 = load i8, i8* %19, align 1, !tbaa !5
  %21 = icmp eq i8 %17, %20
  br i1 %21, label %22, label %25

22:                                               ; preds = %14
  %23 = add nuw i64 %15, 1
  %24 = icmp eq i64 %23, %8
  br i1 %24, label %25, label %14, !llvm.loop !8

25:                                               ; preds = %14, %22
  %26 = phi i32 [ %13, %22 ], [ 0, %14 ]
  %27 = sext i32 %26 to i64
  %28 = icmp eq i64 %8, %27
  br i1 %28, label %29, label %32

29:                                               ; preds = %25
  %30 = trunc i64 %11 to i32
  %31 = call i32 (i8*, ...) @printf(i8* nonnull dereferenceable(1) getelementptr inbounds ([3 x i8], [3 x i8]* @.str.1, i64 0, i64 0), i32 %30)
  br label %35

32:                                               ; preds = %25
  %33 = add nuw i64 %11, 1
  %34 = icmp eq i64 %33, %7
  br i1 %34, label %35, label %10, !llvm.loop !10

35:                                               ; preds = %32, %29
  %36 = bitcast i32* %3 to i8*
  call void @llvm.lifetime.start.p0i8(i64 4, i8* nonnull %36) #4
  %37 = call i32 (i8*, ...) @__isoc99_scanf(i8* getelementptr inbounds ([3 x i8], [3 x i8]* @.str.1, i64 0, i64 0), i32* nonnull %3)
  call void @llvm.lifetime.end.p0i8(i64 4, i8* nonnull %36) #4
  call void @llvm.lifetime.end.p0i8(i64 55, i8* nonnull %5) #4
  call void @llvm.lifetime.end.p0i8(i64 55, i8* nonnull %4) #4
  ret i32 0
}

; Function Attrs: argmemonly mustprogress nofree nosync nounwind willreturn
declare void @llvm.lifetime.start.p0i8(i64 immarg, i8* nocapture) #1

; Function Attrs: nofree nounwind
declare noundef i32 @__isoc99_scanf(i8* nocapture noundef readonly, ...) local_unnamed_addr #2

; Function Attrs: argmemonly mustprogress nofree nounwind readonly willreturn
declare i64 @strlen(i8* nocapture) local_unnamed_addr #3

; Function Attrs: nofree nounwind
declare noundef i32 @printf(i8* nocapture noundef readonly, ...) local_unnamed_addr #2

; Function Attrs: argmemonly mustprogress nofree nosync nounwind willreturn
declare void @llvm.lifetime.end.p0i8(i64 immarg, i8* nocapture) #1


!llvm.module.flags = !{!0, !1, !2, !3}
!llvm.ident = !{!4}

!0 = !{i32 1, !"wchar_size", i32 4}
!1 = !{i32 7, !"PIC Level", i32 2}
!2 = !{i32 7, !"PIE Level", i32 2}
!3 = !{i32 7, !"uwtable", i32 1}
!4 = !{!"clang version 13.0.0"}
!5 = !{!6, !6, i64 0}
!6 = !{!"omnipotent char", !7, i64 0}
!7 = !{!"Simple C/C++ TBAA"}
!8 = distinct !{!8, !9}
!9 = !{!"llvm.loop.mustprogress"}
!10 = distinct !{!10, !9}
